target datalayout = "e-m:e-p270:32:32-p271:32:32-p272:64:64-i64:64-i128:128-f80:128-n8:16:32:64-S128"
target triple = "x86_64-pc-linux-gnu"

%struct.TString = type { i8, i8, i8, i16, ptr, i32, i32, [1 x i8] }
%struct.Proto = type { i8, i8, i8, i8, i8, i8, i8, i8, ptr, ptr, ptr, ptr, ptr, i64, ptr, ptr, ptr, ptr, ptr, ptr, ptr, ptr, ptr, ptr, i32, i32, i32, i32, i32, i32, i32, i32, i32, i32 }

; Function Attrs: mustprogress nounwind uwtable
define dso_local noundef ptr @_ZN4Luau7CodeGen18tryFindUpvalueNameEPK5Protoi(ptr noundef %0, i32 noundef %1) #1 {
  %3 = alloca ptr, align 8
  %4 = alloca ptr, align 8
  %5 = alloca i32, align 4
  store ptr %0, ptr %4, align 8
  store i32 %1, ptr %5, align 4
  %6 = load ptr, ptr %4, align 8
  %7 = getelementptr inbounds %struct.Proto, ptr %6, i32 0, i32 17
  %8 = load ptr, ptr %7, align 8
  %9 = icmp ne ptr %8, null
  br i1 %9, label %10, label %30

10:                                               ; preds = %2
  %11 = load ptr, ptr %4, align 8
  %12 = getelementptr inbounds %struct.Proto, ptr %11, i32 0, i32 17
  %13 = load ptr, ptr %12, align 8
  %14 = load i32, ptr %5, align 4
  %15 = sext i32 %14 to i64
  %16 = getelementptr inbounds ptr, ptr %13, i64 %15
  %17 = load ptr, ptr %16, align 8
  %18 = icmp ne ptr %17, null
  br i1 %18, label %19, label %29

19:                                               ; preds = %10
  %20 = load ptr, ptr %4, align 8
  %21 = getelementptr inbounds %struct.Proto, ptr %20, i32 0, i32 17
  %22 = load ptr, ptr %21, align 8
  %23 = load i32, ptr %5, align 4
  %24 = sext i32 %23 to i64
  %25 = getelementptr inbounds ptr, ptr %22, i64 %24
  %26 = load ptr, ptr %25, align 8
  %27 = getelementptr inbounds %struct.TString, ptr %26, i32 0, i32 7
  %28 = getelementptr inbounds [1 x i8], ptr %27, i64 0, i64 0
  store ptr %28, ptr %3, align 8
  br label %31

29:                                               ; preds = %10
  br label %30

30:                                               ; preds = %29, %2
  store ptr null, ptr %3, align 8
  br label %31

31:                                               ; preds = %30, %19
  %32 = load ptr, ptr %3, align 8
  ret ptr %32
}