; Function Attrs: mustprogress nofree norecurse nosync nounwind willreturn memory(read, inaccessiblemem: none) uwtable
define dso_local noundef ptr @_ZN4Luau7CodeGen18tryFindUpvalueNameEPK5Protoi(ptr nocapture noundef readonly %0, i32 noundef %1) local_unnamed_addr #0 {
  %3 = getelementptr inbounds i8, ptr %0, i64 80
  %4 = load ptr, ptr %3, align 8
  %.not = icmp eq ptr %4, null
  br i1 %.not, label %10, label %5

5:                                                ; preds = %2
  %6 = sext i32 %1 to i64
  %7 = getelementptr inbounds ptr, ptr %4, i64 %6
  %8 = load ptr, ptr %7, align 8
  %.not7 = icmp eq ptr %8, null
  %9 = getelementptr inbounds i8, ptr %8, i64 24
  %spec.select = select i1 %.not7, ptr null, ptr %9
  br label %10

10:                                               ; preds = %5, %2
  %.0 = phi ptr [ null, %2 ], [ %spec.select, %5 ]
  ret ptr %.0
}